target datalayout = "e-m:e-p270:32:32-p271:32:32-p272:64:64-i64:64-i128:128-f80:128-n8:16:32:64-S128"
target triple = "x86_64-pc-linux-gnu"

%struct.ZSTD_seqSymbol = type { i16, i8, i8, i32 }
%struct.ZSTD_DCtx_s = type { ptr, ptr, ptr, ptr, %struct.ZSTD_entropyDTables_t, [640 x i32], ptr, ptr, ptr, ptr, i64, %struct.ZSTD_FrameHeader, i64, i64, i32, i32, i32, i32, %struct.XXH64_state_s, i64, i32, i32, i32, ptr, %struct.ZSTD_customMem, i64, i64, i64, i32, i32, ptr, ptr, i32, i32, i32, ptr, i32, i32, i32, i32, ptr, i64, i64, i64, ptr, i64, i64, i64, i64, ptr, i32, i32, i32, i32, i32, %struct.ZSTD_outBuffer_s, ptr, ptr, i32, [65568 x i8], [18 x i8], i64, i64 }
%struct.ZSTD_entropyDTables_t = type { [513 x %struct.ZSTD_seqSymbol], [257 x %struct.ZSTD_seqSymbol], [513 x %struct.ZSTD_seqSymbol], [4097 x i32], [3 x i32], [157 x i32] }
%struct.ZSTD_FrameHeader = type { i64, i64, i32, i32, i32, i32, i32, i32, i32 }
%struct.XXH64_state_s = type { i64, [4 x i64], [4 x i64], i32, i32, i64 }
%struct.ZSTD_customMem = type { ptr, ptr, ptr }
%struct.ZSTD_outBuffer_s = type { ptr, i64, i64 }

; Function Attrs: nounwind uwtable
define void @ZSTD_checkContinuity(ptr noundef %0, ptr noundef %1, i64 noundef %2) #0 {
  %4 = alloca ptr, align 8
  %5 = alloca ptr, align 8
  %6 = alloca i64, align 8
  store ptr %0, ptr %4, align 8, !tbaa !16
  store ptr %1, ptr %5, align 8, !tbaa !3
  store i64 %2, ptr %6, align 8, !tbaa !7
  %7 = load ptr, ptr %5, align 8, !tbaa !3
  %8 = load ptr, ptr %4, align 8, !tbaa !16
  %9 = getelementptr inbounds nuw %struct.ZSTD_DCtx_s, ptr %8, i32 0, i32 6
  %10 = load ptr, ptr %9, align 8, !tbaa !57
  %11 = icmp ne ptr %7, %10
  br i1 %11, label %12, label %41

12:                                               ; preds = %3
  %13 = load i64, ptr %6, align 8, !tbaa !7
  %14 = icmp ugt i64 %13, 0
  br i1 %14, label %15, label %41

15:                                               ; preds = %12
  %16 = load ptr, ptr %4, align 8, !tbaa !16
  %17 = getelementptr inbounds nuw %struct.ZSTD_DCtx_s, ptr %16, i32 0, i32 6
  %18 = load ptr, ptr %17, align 8, !tbaa !57
  %19 = load ptr, ptr %4, align 8, !tbaa !16
  %20 = getelementptr inbounds nuw %struct.ZSTD_DCtx_s, ptr %19, i32 0, i32 9
  store ptr %18, ptr %20, align 8, !tbaa !58
  %21 = load ptr, ptr %5, align 8, !tbaa !3
  %22 = load ptr, ptr %4, align 8, !tbaa !16
  %23 = getelementptr inbounds nuw %struct.ZSTD_DCtx_s, ptr %22, i32 0, i32 6
  %24 = load ptr, ptr %23, align 8, !tbaa !57
  %25 = load ptr, ptr %4, align 8, !tbaa !16
  %26 = getelementptr inbounds nuw %struct.ZSTD_DCtx_s, ptr %25, i32 0, i32 7
  %27 = load ptr, ptr %26, align 8, !tbaa !59
  %28 = ptrtoint ptr %24 to i64
  %29 = ptrtoint ptr %27 to i64
  %30 = sub i64 %28, %29
  %31 = sub i64 0, %30
  %32 = getelementptr inbounds i8, ptr %21, i64 %31
  %33 = load ptr, ptr %4, align 8, !tbaa !16
  %34 = getelementptr inbounds nuw %struct.ZSTD_DCtx_s, ptr %33, i32 0, i32 8
  store ptr %32, ptr %34, align 8, !tbaa !47
  %35 = load ptr, ptr %5, align 8, !tbaa !3
  %36 = load ptr, ptr %4, align 8, !tbaa !16
  %37 = getelementptr inbounds nuw %struct.ZSTD_DCtx_s, ptr %36, i32 0, i32 7
  store ptr %35, ptr %37, align 8, !tbaa !59
  %38 = load ptr, ptr %5, align 8, !tbaa !3
  %39 = load ptr, ptr %4, align 8, !tbaa !16
  %40 = getelementptr inbounds nuw %struct.ZSTD_DCtx_s, ptr %39, i32 0, i32 6
  store ptr %38, ptr %40, align 8, !tbaa !57
  br label %41

41:                                               ; preds = %15, %12, %3
  ret void
}